; Function Attrs: mustprogress uwtable
define internal fastcc void @_ZZN8facebook5velox12_GLOBAL__N_110castToJsonILNS0_8TypeKindE0ETnNSt9enable_ifIXsr10TypeTraitsIXT_EEE15isPrimitiveTypeEiE4typeELi0EEEvRKNS0_10BaseVectorERNS0_4exec7EvalCtxERKNS0_17SelectivityVectorERNS0_10FlatVectorINS0_10StringViewEEEbENKUlT_E0_clIiEEDaSK_(ptr nocapture noundef nonnull readonly align 8 dereferenceable(32) %this, i32 noundef %row) unnamed_addr #0 align 2 {
entry:
  %agg.tmp = alloca %"struct.facebook::velox::StringView", align 8
  %0 = load ptr, ptr %this, align 8
  %1 = load ptr, ptr %0, align 8
  %vtable = load ptr, ptr %1, align 8
  %vfn = getelementptr inbounds i8, ptr %vtable, i64 32
  %2 = load ptr, ptr %vfn, align 8
  %call = tail call noundef zeroext i1 %2(ptr noundef nonnull align 8 dereferenceable(99) %1, i32 noundef %row)
  br i1 %call, label %if.then, label %if.else

if.then:                                          ; preds = %entry
  tail call void @llvm.trap()
  unreachable

if.else:                                          ; preds = %entry
  %3 = getelementptr inbounds i8, ptr %this, i64 8
  %4 = load ptr, ptr %3, align 8
  tail call void @_ZNSt7__cxx1112basic_stringIcSt11char_traitsIcESaIcEE5clearEv(ptr noundef nonnull align 8 dereferenceable(32) %4) #33
  %5 = load ptr, ptr %this, align 8
  %6 = load ptr, ptr %5, align 8
  %7 = load ptr, ptr %3, align 8
  %vtable.i = load ptr, ptr %6, align 8
  %vfn.i = getelementptr inbounds i8, ptr %vtable.i, i64 352
  %8 = load ptr, ptr %vfn.i, align 8
  %call.i = tail call noundef zeroext i1 %8(ptr noundef nonnull align 8 dereferenceable(112) %6, i32 noundef %row)
  %call1.i = tail call noundef nonnull align 8 dereferenceable(32) ptr @_ZNSt7__cxx1112basic_stringIcSt11char_traitsIcESaIcEE6appendEPKc(ptr noundef nonnull align 8 dereferenceable(32) %7, ptr noundef nonnull @.str.15)
  %cond.i = select i1 %call.i, ptr @.str.13, ptr @.str.14
  %call2.i = tail call noundef nonnull align 8 dereferenceable(32) ptr @_ZNSt7__cxx1112basic_stringIcSt11char_traitsIcESaIcEE6appendEPKc(ptr noundef nonnull align 8 dereferenceable(32) %7, ptr noundef nonnull %cond.i)
  %call3.i = tail call noundef nonnull align 8 dereferenceable(32) ptr @_ZNSt7__cxx1112basic_stringIcSt11char_traitsIcESaIcEE6appendEPKc(ptr noundef nonnull align 8 dereferenceable(32) %7, ptr noundef nonnull @.str.15)
  %9 = getelementptr inbounds i8, ptr %this, i64 24
  %10 = load ptr, ptr %9, align 8
  %11 = load ptr, ptr %3, align 8
  %call.i3 = tail call noundef ptr @_ZNKSt7__cxx1112basic_stringIcSt11char_traitsIcESaIcEE4dataEv(ptr noundef nonnull align 8 dereferenceable(32) %11) #33
  %call2.i4 = tail call noundef i64 @_ZNKSt7__cxx1112basic_stringIcSt11char_traitsIcESaIcEE4sizeEv(ptr noundef nonnull align 8 dereferenceable(32) %11) #33
  %conv.i = trunc i64 %call2.i4 to i32
  store i32 %conv.i, ptr %agg.tmp, align 8
  %cmp.i.i = icmp slt i32 %conv.i, 0
  br i1 %cmp.i.i, label %if.then.i.i, label %if.end.i.i

if.then.i.i:                                      ; preds = %if.else
  tail call void @llvm.trap()
  unreachable

if.end.i.i:                                       ; preds = %if.else
  %cmp.i.i.i.i = icmp ult i32 %conv.i, 13
  br i1 %cmp.i.i.i.i, label %if.then2.i.i, label %if.else.i.i

if.then2.i.i:                                     ; preds = %if.end.i.i
  %agg.tmp.4.agg.tmp.4.agg.tmp.4.prefix_.i.i.sroa_idx11 = getelementptr inbounds i8, ptr %agg.tmp, i64 4
  store i32 0, ptr %agg.tmp.4.agg.tmp.4.agg.tmp.4.prefix_.i.i.sroa_idx11, align 4
  %cmp4.i.i = icmp eq i32 %conv.i, 0
  br i1 %cmp4.i.i, label %_ZN8facebook5velox10StringViewC2ERKNSt7__cxx1112basic_stringIcSt11char_traitsIcESaIcEEE.exit, label %if.end6.i.i

if.end6.i.i:                                      ; preds = %if.then2.i.i
  %agg.tmp.8.agg.tmp.8.agg.tmp.8.value_7.i.i.sroa_idx = getelementptr inbounds i8, ptr %agg.tmp, i64 8
  store ptr null, ptr %agg.tmp.8.agg.tmp.8.agg.tmp.8.value_7.i.i.sroa_idx, align 8
  %conv.i.i = and i64 %call2.i4, 15
  %agg.tmp.4.agg.tmp.4.agg.tmp.4.prefix_.i.i.sroa_idx = getelementptr inbounds i8, ptr %agg.tmp, i64 4
  call void @llvm.memcpy.p0.p0.i64(ptr nonnull align 4 %agg.tmp.4.agg.tmp.4.agg.tmp.4.prefix_.i.i.sroa_idx, ptr align 1 %call.i3, i64 %conv.i.i, i1 false)
  %agg.tmp.8.agg.tmp.8.agg.tmp.8.value_7.i.i.sroa_idx12 = getelementptr inbounds i8, ptr %agg.tmp, i64 8
  %agg.tmp.8.agg.tmp.8.agg.tmp.8..pre = load ptr, ptr %agg.tmp.8.agg.tmp.8.agg.tmp.8.value_7.i.i.sroa_idx12, align 8
  br label %_ZN8facebook5velox10StringViewC2ERKNSt7__cxx1112basic_stringIcSt11char_traitsIcESaIcEEE.exit

if.else.i.i:                                      ; preds = %if.end.i.i
  %12 = load i32, ptr %call.i3, align 1
  %agg.tmp.4.agg.tmp.4.agg.tmp.4.prefix_.i.i.sroa_idx10 = getelementptr inbounds i8, ptr %agg.tmp, i64 4
  store i32 %12, ptr %agg.tmp.4.agg.tmp.4.agg.tmp.4.prefix_.i.i.sroa_idx10, align 4
  br label %_ZN8facebook5velox10StringViewC2ERKNSt7__cxx1112basic_stringIcSt11char_traitsIcESaIcEEE.exit

_ZN8facebook5velox10StringViewC2ERKNSt7__cxx1112basic_stringIcSt11char_traitsIcESaIcEEE.exit: ; preds = %if.then2.i.i, %if.end6.i.i, %if.else.i.i
  %agg.tmp.8.agg.tmp.8. = phi ptr [ undef, %if.then2.i.i ], [ %agg.tmp.8.agg.tmp.8.agg.tmp.8..pre, %if.end6.i.i ], [ %call.i3, %if.else.i.i ]
  %agg.tmp.0.agg.tmp.0.agg.tmp.0. = load i64, ptr %agg.tmp, align 8
  tail call void @_ZN8facebook5velox10FlatVectorINS0_10StringViewEE3setEiS2_(ptr noundef nonnull align 8 dereferenceable(280) %10, i32 noundef %row, i64 %agg.tmp.0.agg.tmp.0.agg.tmp.0., ptr %agg.tmp.8.agg.tmp.8.)
  ret void
}